; Function Attrs: mustprogress uwtable
define void @_ZNK6casadi11FmuInternal7get_adjEPNS_9FmuMemoryEmPd(ptr noundef nonnull readonly align 8 captures(none) dereferenceable(744) %0, ptr noundef readonly captures(none) %1, i64 noundef %2, ptr noundef writeonly captures(address_is_null) %3) local_unnamed_addr #4 align 2 {
  %.not = icmp eq ptr %3, null
  br i1 %.not, label %.loopexit, label %5

5:                                                ; preds = %4
  %6 = getelementptr inbounds nuw i8, ptr %0, i64 680
  %7 = load ptr, ptr %6, align 8, !tbaa !66
  %8 = getelementptr inbounds nuw %"class.std::vector.7", ptr %7, i64 %2
  %9 = load ptr, ptr %8, align 8, !tbaa !126
  %10 = getelementptr inbounds nuw i8, ptr %8, i64 8
  %11 = load ptr, ptr %10, align 8, !tbaa !126
  %.not1114 = icmp eq ptr %9, %11
  br i1 %.not1114, label %.loopexit, label %.lr.ph

.lr.ph:                                           ; preds = %5
  %12 = getelementptr inbounds nuw i8, ptr %1, i64 280
  %13 = getelementptr inbounds nuw i8, ptr %1, i64 288
  %14 = load ptr, ptr %13, align 8, !tbaa !67
  %15 = load ptr, ptr %12, align 8, !tbaa !69
  %16 = ptrtoint ptr %14 to i64
  %17 = ptrtoint ptr %15 to i64
  %18 = sub i64 %16, %17
  %19 = ashr exact i64 %18, 3
  br label %20

20:                                               ; preds = %.lr.ph, %_ZNSt6vectorIdSaIdEE2atEm.exit.i
  %.016 = phi ptr [ %3, %.lr.ph ], [ %23, %_ZNSt6vectorIdSaIdEE2atEm.exit.i ]
  %.sroa.08.015 = phi ptr [ %9, %.lr.ph ], [ %26, %_ZNSt6vectorIdSaIdEE2atEm.exit.i ]
  %21 = load i64, ptr %.sroa.08.015, align 8, !tbaa !25
  %.not.i.i.i = icmp ult i64 %21, %19
  br i1 %.not.i.i.i, label %_ZNSt6vectorIdSaIdEE2atEm.exit.i, label %22

22:                                               ; preds = %20
  tail call void (ptr, ...) @_ZSt24__throw_out_of_range_fmtPKcz(ptr noundef nonnull @.str.232, i64 noundef %21, i64 noundef %19) #34
  unreachable

_ZNSt6vectorIdSaIdEE2atEm.exit.i:                 ; preds = %20
  %23 = getelementptr inbounds nuw i8, ptr %.016, i64 8
  %24 = getelementptr inbounds nuw double, ptr %15, i64 %21
  %25 = load double, ptr %24, align 8, !tbaa !70
  store double %25, ptr %.016, align 8, !tbaa !70
  %26 = getelementptr inbounds nuw i8, ptr %.sroa.08.015, i64 8
  %.not11 = icmp eq ptr %26, %11
  br i1 %.not11, label %.loopexit, label %20

.loopexit:                                        ; preds = %_ZNSt6vectorIdSaIdEE2atEm.exit.i, %5, %4
  ret void
}